target datalayout = "e-m:e-p270:32:32-p271:32:32-p272:64:64-i64:64-i128:128-f80:128-n8:16:32:64-S128"
target triple = "x86_64-pc-linux-gnu"

%"class.pkpy::unique_ptr_128" = type { ptr }
%"struct.pkpy::Expr.base" = type <{ ptr, i32 }>
%"struct.pkpy::StarredExpr" = type { %"struct.pkpy::Expr.base", i32, %"class.pkpy::unique_ptr_128" }

; Function Attrs: mustprogress nounwind uwtable
define linkonce_odr noundef ptr @_ZNK4pkpy14unique_ptr_128INS_4ExprEEptEv(ptr noundef nonnull align 8 dereferenceable(8) %0) #5 comdat align 2 {
  %2 = alloca ptr, align 8
  store ptr %0, ptr %2, align 8
  %3 = load ptr, ptr %2, align 8
  %4 = getelementptr inbounds %"class.pkpy::unique_ptr_128", ptr %3, i32 0, i32 0
  %5 = load ptr, ptr %4, align 8
  ret ptr %5
}

; Function Attrs: mustprogress uwtable
define noundef zeroext i1 @_ZN4pkpy11StarredExpr10emit_storeEPNS_15CodeEmitContextE(ptr noundef nonnull align 8 dereferenceable(24) %0, ptr noundef %1) unnamed_addr #4 align 2 {
  %3 = alloca i1, align 1
  %4 = alloca ptr, align 8
  %5 = alloca ptr, align 8
  store ptr %0, ptr %4, align 8
  store ptr %1, ptr %5, align 8
  %6 = load ptr, ptr %4, align 8
  %7 = getelementptr inbounds %"struct.pkpy::StarredExpr", ptr %6, i32 0, i32 1
  %8 = load i32, ptr %7, align 4
  %9 = icmp ne i32 %8, 1
  br i1 %9, label %10, label %11

10:                                               ; preds = %2
  store i1 false, ptr %3, align 1
  br label %19

11:                                               ; preds = %2
  %12 = getelementptr inbounds %"struct.pkpy::StarredExpr", ptr %6, i32 0, i32 2
  %13 = call noundef ptr @_ZNK4pkpy14unique_ptr_128INS_4ExprEEptEv(ptr noundef nonnull align 8 dereferenceable(8) %12)
  %14 = load ptr, ptr %5, align 8
  %15 = load ptr, ptr %13, align 8
  %16 = getelementptr inbounds ptr, ptr %15, i64 11
  %17 = load ptr, ptr %16, align 8
  %18 = call noundef zeroext i1 %17(ptr noundef nonnull align 8 dereferenceable(12) %13, ptr noundef %14)
  store i1 %18, ptr %3, align 1
  br label %19

19:                                               ; preds = %11, %10
  %20 = load i1, ptr %3, align 1
  ret i1 %20
}