; Function Attrs: mustprogress uwtable
define noundef zeroext i1 @_ZN4pkpy11StarredExpr10emit_storeEPNS_15CodeEmitContextE(ptr noundef nonnull readonly align 8 captures(none) dereferenceable(24) %0, ptr noundef %1) unnamed_addr #5 align 2 {
  %3 = getelementptr inbounds nuw i8, ptr %0, i64 12
  %4 = load i32, ptr %3, align 4
  %.not = icmp eq i32 %4, 1
  br i1 %.not, label %5, label %12

5:                                                ; preds = %2
  %6 = getelementptr inbounds nuw i8, ptr %0, i64 16
  %7 = load ptr, ptr %6, align 8
  %8 = load ptr, ptr %7, align 8
  %9 = getelementptr inbounds nuw i8, ptr %8, i64 88
  %10 = load ptr, ptr %9, align 8
  %11 = tail call noundef zeroext i1 %10(ptr noundef nonnull align 8 dereferenceable(12) %7, ptr noundef %1)
  br label %12

12:                                               ; preds = %2, %5
  %.0 = phi i1 [ %11, %5 ], [ false, %2 ]
  ret i1 %.0
}